Certificate:
    Data:
        Version: 3 (0x2)
        Serial Number:
            64:45:b9:7d:5c:c6:7a:14:bd:cd:93:cd:a0:9a:78:83
        Signature Algorithm: sha256WithRSAEncryption
        Issuer: CN=FRC Root CA
        Validity
            Not Before: Oct 19 21:01:53 2023 GMT
            Not After : Jan 21 21:01:53 2026 GMT
        Subject: CN=mysql.frc.org
        Subject Public Key Info:
            Public Key Algorithm: rsaEncryption
                RSA Public-Key: (2048 bit)
                Modulus:
                    00:a6:f0:e4:08:78:89:40:72:a8:b7:cc:44:8b:7d:
                    09:6f:70:f9:1b:c6:ac:3f:76:2f:bf:a4:fb:eb:69:
                    51:e3:af:0b:3f:16:29:ca:aa:1a:b1:11:28:02:fa:
                    4c:90:35:d3:fe:7a:5d:cb:a5:ea:80:45:40:53:73:
                    82:f5:2c:bf:60:e2:44:a6:cf:bc:b8:19:a9:84:15:
                    2d:56:f1:e3:8d:3c:3b:6d:b1:44:60:b5:f3:55:ab:
                    df:eb:cc:b3:d9:c3:72:ea:71:34:f7:1d:3b:ca:bb:
                    c7:dd:1b:46:31:6d:08:32:6d:25:c7:37:d2:3c:fe:
                    17:39:3f:eb:ca:9f:61:5c:0a:08:6a:54:9b:fd:5c:
                    f6:05:c6:ed:cf:84:0b:60:5f:ee:cb:fe:60:72:bc:
                    5a:7d:f7:ae:c6:46:48:f8:3a:87:48:57:cf:f0:70:
                    d5:79:d1:31:2b:0b:82:91:a6:9a:17:91:a9:fe:a4:
                    88:ab:b6:3a:a0:dd:6e:42:01:16:1d:86:fc:d1:64:
                    e5:1e:3f:b7:fe:8e:5d:72:69:5a:10:da:77:53:e2:
                    05:72:dd:20:35:50:a0:75:d1:73:f0:49:fc:6c:6d:
                    7b:a4:f5:97:5f:8f:85:5c:00:9b:1e:45:08:32:ee:
                    5e:d4:27:94:a6:31:84:6f:b2:6f:70:31:1c:95:e8:
                    f5:2b
                Exponent: 65537 (0x10001)
        X509v3 extensions:
            X509v3 Basic Constraints: 
                CA:FALSE
            X509v3 Subject Key Identifier: 
                5C:1A:AC:DC:DA:CF:2F:6E:6D:1A:08:0F:48:F9:25:58:AC:FE:3C:65
            X509v3 Authority Key Identifier: 
                keyid:EC:FE:65:82:D0:B8:D5:01:1E:A8:F6:E7:41:77:75:3B:BD:0F:55:66
                DirName:/CN=FRC Root CA
                serial:31:C5:40:52:85:F0:8B:CA:62:F4:B7:3C:DC:DD:71:A7:FB:B1:1B:92

            X509v3 Extended Key Usage: 
                TLS Web Server Authentication
            X509v3 Key Usage: 
                Digital Signature, Key Encipherment
            X509v3 Subject Alternative Name: 
                DNS:mysql.frc.org
    Signature Algorithm: sha256WithRSAEncryption
         18:5d:3c:24:4d:26:7c:e7:2e:dc:12:1d:8d:bb:15:b8:4b:61:
         b7:03:72:58:ad:c6:c1:08:6d:68:a5:cd:f7:59:20:b2:04:7d:
         2e:ca:2b:6c:fc:ee:52:72:0d:01:5a:6a:90:14:4a:d2:ac:4a:
         03:8b:c5:a7:9f:cb:64:da:56:ee:fd:d6:a4:a0:f9:a9:8b:e9:
         19:96:ed:a6:59:48:b4:ef:07:e0:c3:a8:f1:4b:24:a4:0b:3f:
         41:27:9b:a4:8e:d0:b3:96:5f:40:1a:7a:20:19:cc:22:d4:34:
         f1:ea:55:ef:7c:a7:29:5f:61:4e:cf:e6:eb:05:58:1f:82:18:
         02:68:1a:bf:32:2a:79:e8:82:84:ca:0d:aa:2e:0f:55:ef:17:
         ad:c8:1a:05:01:05:e1:de:7b:20:39:1a:4b:5d:3f:8e:7b:62:
         8a:36:3e:63:97:c5:7f:9e:74:e8:39:3e:e9:07:0e:3e:bc:89:
         95:83:1c:27:4e:0e:f2:ce:02:fd:fd:0f:81:7d:c4:ae:13:64:
         bc:d9:92:66:cb:0c:74:15:4f:94:5d:f0:9b:33:8d:3c:36:0e:
         28:fb:3a:3d:58:8d:d5:a5:63:15:8b:f1:62:42:ae:cc:48:b4:
         d2:38:bd:4a:d6:15:b7:72:cc:68:59:1d:84:15:ef:c1:92:58:
         06:96:dd:0a
-----BEGIN CERTIFICATE-----
MIIDdTCCAl2gAwIBAgIQZEW5fVzGehS9zZPNoJp4gzANBgkqhkiG9w0BAQsFADAW
MRQwEgYDVQQDDAtGUkMgUm9vdCBDQTAeFw0yMzEwMTkyMTAxNTNaFw0yNjAxMjEy
MTAxNTNaMBgxFjAUBgNVBAMMDW15c3FsLmZyYy5vcmcwggEiMA0GCSqGSIb3DQEB
AQUAA4IBDwAwggEKAoIBAQCm8OQIeIlAcqi3zESLfQlvcPkbxqw/di+/pPvraVHj
rws/FinKqhqxESgC+kyQNdP+el3LpeqARUBTc4L1LL9g4kSmz7y4GamEFS1W8eON
PDttsURgtfNVq9/rzLPZw3LqcTT3HTvKu8fdG0YxbQgybSXHN9I8/hc5P+vKn2Fc
CghqVJv9XPYFxu3PhAtgX+7L/mByvFp9967GRkj4OodIV8/wcNV50TErC4KRppoX
kan+pIirtjqg3W5CARYdhvzRZOUeP7f+jl1yaVoQ2ndT4gVy3SA1UKB10XPwSfxs
bXuk9Zdfj4VcAJseRQgy7l7UJ5SmMYRvsm9wMRyV6PUrAgMBAAGjgbwwgbkwCQYD
VR0TBAIwADAdBgNVHQ4EFgQUXBqs3NrPL25tGggPSPklWKz+PGUwUQYDVR0jBEow
SIAU7P5lgtC41QEeqPbnQXd1O70PVWahGqQYMBYxFDASBgNVBAMMC0ZSQyBSb290
IENBghQxxUBShfCLymL0tzzc3XGn+7EbkjATBgNVHSUEDDAKBggrBgEFBQcDATAL
BgNVHQ8EBAMCBaAwGAYDVR0RBBEwD4INbXlzcWwuZnJjLm9yZzANBgkqhkiG9w0B
AQsFAAOCAQEAGF08JE0mfOcu3BIdjbsVuEthtwNyWK3GwQhtaKXN91kgsgR9Lsor
bPzuUnINAVpqkBRK0qxKA4vFp5/LZNpW7v3WpKD5qYvpGZbtpllItO8H4MOo8Usk
pAs/QSebpI7Qs5ZfQBp6IBnMItQ08epV73ynKV9hTs/m6wVYH4IYAmgavzIqeeiC
hMoNqi4PVe8XrcgaBQEF4d57IDkaS10/jntiijY+Y5fFf5506Dk+6QcOPryJlYMc
J04O8s4C/f0PgX3ErhNkvNmSZssMdBVPlF3wmzONPDYOKPs6PViN1aVjFYvxYkKu
zEi00ji9StYVt3LMaFkdhBXvwZJYBpbdCg==
-----END CERTIFICATE-----
